; Function Attrs: mustprogress nofree norecurse nosync nounwind willreturn memory(argmem: read) uwtable
define hidden noundef i32 @_ZNK4ncnn6CpuSet11num_enabledEv(ptr noundef nonnull readonly align 8 captures(none) dereferenceable(128) %0) local_unnamed_addr #4 align 2 {
  br label %_ZNK4ncnn6CpuSet10is_enabledEi.exit

2:                                                ; preds = %_ZNK4ncnn6CpuSet10is_enabledEi.exit
  ret i32 %spec.select

_ZNK4ncnn6CpuSet10is_enabledEi.exit:              ; preds = %1, %_ZNK4ncnn6CpuSet10is_enabledEi.exit
  %indvars.iv = phi i64 [ 0, %1 ], [ %indvars.iv.next, %_ZNK4ncnn6CpuSet10is_enabledEi.exit ]
  %.056 = phi i32 [ 0, %1 ], [ %spec.select, %_ZNK4ncnn6CpuSet10is_enabledEi.exit ]
  %3 = lshr i64 %indvars.iv, 6
  %4 = getelementptr inbounds nuw i64, ptr %0, i64 %3
  %5 = load i64, ptr %4, align 8, !tbaa !4
  %6 = and i64 %indvars.iv, 63
  %7 = lshr i64 %5, %6
  %8 = trunc i64 %7 to i32
  %9 = and i32 %8, 1
  %spec.select = add nuw nsw i32 %9, %.056
  %indvars.iv.next = add nuw nsw i64 %indvars.iv, 1
  %exitcond.not = icmp eq i64 %indvars.iv.next, 1024
  br i1 %exitcond.not, label %2, label %_ZNK4ncnn6CpuSet10is_enabledEi.exit, !llvm.loop !8
}